target datalayout = "e-m:e-p270:32:32-p271:32:32-p272:64:64-i64:64-i128:128-f80:128-n8:16:32:64-S128"
target triple = "x86_64-pc-linux-gnu"

%class.G1FullGCPrepareTask = type { %class.G1FullGCTask, i8, %class.G1HeapRegionClaimer }
%class.G1FullGCTask = type { %class.WorkerTask.base, ptr }
%class.WorkerTask.base = type <{ ptr, ptr, i32 }>
%class.G1HeapRegionClaimer = type { i32, i32, ptr }

; Function Attrs: mustprogress nounwind uwtable
define hidden void @_ZN19G1FullGCPrepareTask31set_has_free_compaction_targetsEv(ptr noundef nonnull align 8 dereferenceable(56) %0) #1 align 2 {
  %2 = alloca ptr, align 8
  store ptr %0, ptr %2, align 8
  %3 = load ptr, ptr %2, align 8
  %4 = getelementptr inbounds %class.G1FullGCPrepareTask, ptr %3, i32 0, i32 1
  %5 = load volatile i8, ptr %4, align 8
  %6 = trunc i8 %5 to i1
  br i1 %6, label %9, label %7

7:                                                ; preds = %1
  %8 = getelementptr inbounds %class.G1FullGCPrepareTask, ptr %3, i32 0, i32 1
  store volatile i8 1, ptr %8, align 8
  br label %9

9:                                                ; preds = %7, %1
  ret void
}