; Function Attrs: mustprogress nofree norecurse nounwind memory(argmem: readwrite, inaccessiblemem: readwrite) uwtable
define hidden void @_ZN19G1FullGCPrepareTask31set_has_free_compaction_targetsEv(ptr noundef nonnull align 8 dereferenceable(56) %0) local_unnamed_addr #3 align 2 {
  %2 = getelementptr inbounds i8, ptr %0, i64 32
  %3 = load volatile i8, ptr %2, align 8
  %4 = trunc i8 %3 to i1
  br i1 %4, label %6, label %5

5:                                                ; preds = %1
  store volatile i8 1, ptr %2, align 8
  br label %6

6:                                                ; preds = %5, %1
  ret void
}